target datalayout = "e-m:e-p270:32:32-p271:32:32-p272:64:64-i64:64-i128:128-f80:128-n8:16:32:64-S128"
target triple = "x86_64-pc-linux-gnu"

@stderr = external global ptr, align 8
@.str.104 = private unnamed_addr constant [31 x i8] c"../openssl/test/ssl_old_test.c\00", align 1
@.str.217 = private unnamed_addr constant [50 x i8] c"failed to parser ALPN server protocol string: %s\0A\00", align 1
@alpn_selected = internal global ptr null, align 8
@.str.218 = private unnamed_addr constant [27 x i8] c"failed to allocate memory\0A\00", align 1

; Function Attrs: nounwind uwtable
define internal ptr @next_protos_parse(ptr noundef %0, ptr noundef %1) #0 {
  %3 = alloca ptr, align 8
  %4 = alloca ptr, align 8
  %5 = alloca ptr, align 8
  %6 = alloca i64, align 8
  %7 = alloca ptr, align 8
  %8 = alloca i64, align 8
  %9 = alloca i64, align 8
  %10 = alloca i32, align 4
  store ptr %0, ptr %4, align 8, !tbaa !61
  store ptr %1, ptr %5, align 8, !tbaa !11
  call void @llvm.lifetime.start.p0(i64 8, ptr %6) #10
  call void @llvm.lifetime.start.p0(i64 8, ptr %7) #10
  call void @llvm.lifetime.start.p0(i64 8, ptr %8) #10
  call void @llvm.lifetime.start.p0(i64 8, ptr %9) #10
  store i64 0, ptr %9, align 8, !tbaa !19
  %11 = load ptr, ptr %5, align 8, !tbaa !11
  %12 = call i64 @strlen(ptr noundef %11) #11
  store i64 %12, ptr %6, align 8, !tbaa !19
  %13 = load i64, ptr %6, align 8, !tbaa !19
  %14 = icmp uge i64 %13, 65535
  br i1 %14, label %15, label %16

15:                                               ; preds = %2
  store ptr null, ptr %3, align 8
  store i32 1, ptr %10, align 4
  br label %75

16:                                               ; preds = %2
  %17 = load ptr, ptr %5, align 8, !tbaa !11
  %18 = call i64 @strlen(ptr noundef %17) #11
  %19 = add i64 %18, 1
  %20 = call noalias ptr @CRYPTO_malloc(i64 noundef %19, ptr noundef @.str.104, i32 noundef 267)
  store ptr %20, ptr %7, align 8, !tbaa !11
  %21 = load ptr, ptr %7, align 8, !tbaa !11
  %22 = icmp ne ptr %21, null
  br i1 %22, label %24, label %23

23:                                               ; preds = %16
  store ptr null, ptr %3, align 8
  store i32 1, ptr %10, align 4
  br label %75

24:                                               ; preds = %16
  store i64 0, ptr %8, align 8, !tbaa !19
  br label %25

25:                                               ; preds = %67, %24
  %26 = load i64, ptr %8, align 8, !tbaa !19
  %27 = load i64, ptr %6, align 8, !tbaa !19
  %28 = icmp ule i64 %26, %27
  br i1 %28, label %29, label %70

29:                                               ; preds = %25
  %30 = load i64, ptr %8, align 8, !tbaa !19
  %31 = load i64, ptr %6, align 8, !tbaa !19
  %32 = icmp eq i64 %30, %31
  br i1 %32, label %40, label %33

33:                                               ; preds = %29
  %34 = load ptr, ptr %5, align 8, !tbaa !11
  %35 = load i64, ptr %8, align 8, !tbaa !19
  %36 = getelementptr inbounds nuw i8, ptr %34, i64 %35
  %37 = load i8, ptr %36, align 1, !tbaa !37
  %38 = sext i8 %37 to i32
  %39 = icmp eq i32 %38, 44
  br i1 %39, label %40, label %57

40:                                               ; preds = %33, %29
  %41 = load i64, ptr %8, align 8, !tbaa !19
  %42 = load i64, ptr %9, align 8, !tbaa !19
  %43 = sub i64 %41, %42
  %44 = icmp ugt i64 %43, 255
  br i1 %44, label %45, label %47

45:                                               ; preds = %40
  %46 = load ptr, ptr %7, align 8, !tbaa !11
  call void @CRYPTO_free(ptr noundef %46, ptr noundef @.str.104, i32 noundef 274)
  store ptr null, ptr %3, align 8
  store i32 1, ptr %10, align 4
  br label %75

47:                                               ; preds = %40
  %48 = load i64, ptr %8, align 8, !tbaa !19
  %49 = load i64, ptr %9, align 8, !tbaa !19
  %50 = sub i64 %48, %49
  %51 = trunc i64 %50 to i8
  %52 = load ptr, ptr %7, align 8, !tbaa !11
  %53 = load i64, ptr %9, align 8, !tbaa !19
  %54 = getelementptr inbounds nuw i8, ptr %52, i64 %53
  store i8 %51, ptr %54, align 1, !tbaa !37
  %55 = load i64, ptr %8, align 8, !tbaa !19
  %56 = add i64 %55, 1
  store i64 %56, ptr %9, align 8, !tbaa !19
  br label %66

57:                                               ; preds = %33
  %58 = load ptr, ptr %5, align 8, !tbaa !11
  %59 = load i64, ptr %8, align 8, !tbaa !19
  %60 = getelementptr inbounds nuw i8, ptr %58, i64 %59
  %61 = load i8, ptr %60, align 1, !tbaa !37
  %62 = load ptr, ptr %7, align 8, !tbaa !11
  %63 = load i64, ptr %8, align 8, !tbaa !19
  %64 = add i64 %63, 1
  %65 = getelementptr inbounds nuw i8, ptr %62, i64 %64
  store i8 %61, ptr %65, align 1, !tbaa !37
  br label %66

66:                                               ; preds = %57, %47
  br label %67

67:                                               ; preds = %66
  %68 = load i64, ptr %8, align 8, !tbaa !19
  %69 = add i64 %68, 1
  store i64 %69, ptr %8, align 8, !tbaa !19
  br label %25, !llvm.loop !63

70:                                               ; preds = %25
  %71 = load i64, ptr %6, align 8, !tbaa !19
  %72 = add i64 %71, 1
  %73 = load ptr, ptr %4, align 8, !tbaa !61
  store i64 %72, ptr %73, align 8, !tbaa !19
  %74 = load ptr, ptr %7, align 8, !tbaa !11
  store ptr %74, ptr %3, align 8
  store i32 1, ptr %10, align 4
  br label %75

75:                                               ; preds = %70, %45, %23, %15
  call void @llvm.lifetime.end.p0(i64 8, ptr %9) #10
  call void @llvm.lifetime.end.p0(i64 8, ptr %8) #10
  call void @llvm.lifetime.end.p0(i64 8, ptr %7) #10
  call void @llvm.lifetime.end.p0(i64 8, ptr %6) #10
  %76 = load ptr, ptr %3, align 8
  ret ptr %76
}

; Function Attrs: nounwind uwtable
define internal i32 @cb_server_alpn(ptr noundef %0, ptr noundef %1, ptr noundef %2, ptr noundef %3, i32 noundef %4, ptr noundef %5) #0 {
  %7 = alloca i32, align 4
  %8 = alloca ptr, align 8
  %9 = alloca ptr, align 8
  %10 = alloca ptr, align 8
  %11 = alloca ptr, align 8
  %12 = alloca i32, align 4
  %13 = alloca ptr, align 8
  %14 = alloca ptr, align 8
  %15 = alloca i64, align 8
  %16 = alloca ptr, align 8
  %17 = alloca i32, align 4
  store ptr %0, ptr %8, align 8, !tbaa !17
  store ptr %1, ptr %9, align 8, !tbaa !8
  store ptr %2, ptr %10, align 8, !tbaa !11
  store ptr %3, ptr %11, align 8, !tbaa !11
  store i32 %4, ptr %12, align 4, !tbaa !4
  store ptr %5, ptr %13, align 8, !tbaa !53
  call void @llvm.lifetime.start.p0(i64 8, ptr %14) #10
  call void @llvm.lifetime.start.p0(i64 8, ptr %15) #10
  call void @llvm.lifetime.start.p0(i64 8, ptr %16) #10
  %18 = load ptr, ptr %13, align 8, !tbaa !53
  store ptr %18, ptr %16, align 8, !tbaa !11
  %19 = load ptr, ptr %16, align 8, !tbaa !11
  %20 = call ptr @next_protos_parse(ptr noundef %15, ptr noundef %19)
  store ptr %20, ptr %14, align 8, !tbaa !11
  %21 = load ptr, ptr %14, align 8, !tbaa !11
  %22 = icmp eq ptr %21, null
  br i1 %22, label %23, label %27

23:                                               ; preds = %6
  %24 = load ptr, ptr @stderr, align 8, !tbaa !33
  %25 = load ptr, ptr %16, align 8, !tbaa !11
  %26 = call i32 (ptr, ptr, ...) @fprintf(ptr noundef %24, ptr noundef @.str.217, ptr noundef %25) #10
  call void @abort() #12
  unreachable

27:                                               ; preds = %6
  %28 = load ptr, ptr %9, align 8, !tbaa !8
  %29 = load ptr, ptr %10, align 8, !tbaa !11
  %30 = load ptr, ptr %14, align 8, !tbaa !11
  %31 = load i64, ptr %15, align 8, !tbaa !19
  %32 = trunc i64 %31 to i32
  %33 = load ptr, ptr %11, align 8, !tbaa !11
  %34 = load i32, ptr %12, align 4, !tbaa !4
  %35 = call i32 @SSL_select_next_proto(ptr noundef %28, ptr noundef %29, ptr noundef %30, i32 noundef %32, ptr noundef %33, i32 noundef %34)
  %36 = icmp ne i32 %35, 1
  br i1 %36, label %37, label %39

37:                                               ; preds = %27
  %38 = load ptr, ptr %14, align 8, !tbaa !11
  call void @CRYPTO_free(ptr noundef %38, ptr noundef @.str.104, i32 noundef 305)
  store i32 3, ptr %7, align 4
  store i32 1, ptr %17, align 4
  br label %60

39:                                               ; preds = %27
  %40 = load ptr, ptr %10, align 8, !tbaa !11
  %41 = load i8, ptr %40, align 1, !tbaa !37
  %42 = zext i8 %41 to i64
  %43 = call noalias ptr @CRYPTO_malloc(i64 noundef %42, ptr noundef @.str.104, i32 noundef 313)
  store ptr %43, ptr @alpn_selected, align 8, !tbaa !11
  %44 = load ptr, ptr @alpn_selected, align 8, !tbaa !11
  %45 = icmp eq ptr %44, null
  br i1 %45, label %46, label %50

46:                                               ; preds = %39
  %47 = load ptr, ptr @stderr, align 8, !tbaa !33
  %48 = call i32 (ptr, ptr, ...) @fprintf(ptr noundef %47, ptr noundef @.str.218) #10
  %49 = load ptr, ptr %14, align 8, !tbaa !11
  call void @CRYPTO_free(ptr noundef %49, ptr noundef @.str.104, i32 noundef 316)
  call void @abort() #12
  unreachable

50:                                               ; preds = %39
  %51 = load ptr, ptr @alpn_selected, align 8, !tbaa !11
  %52 = load ptr, ptr %9, align 8, !tbaa !8
  %53 = load ptr, ptr %52, align 8, !tbaa !11
  %54 = load ptr, ptr %10, align 8, !tbaa !11
  %55 = load i8, ptr %54, align 1, !tbaa !37
  %56 = zext i8 %55 to i64
  call void @llvm.memcpy.p0.p0.i64(ptr align 1 %51, ptr align 1 %53, i64 %56, i1 false)
  %57 = load ptr, ptr @alpn_selected, align 8, !tbaa !11
  %58 = load ptr, ptr %9, align 8, !tbaa !8
  store ptr %57, ptr %58, align 8, !tbaa !11
  %59 = load ptr, ptr %14, align 8, !tbaa !11
  call void @CRYPTO_free(ptr noundef %59, ptr noundef @.str.104, i32 noundef 322)
  store i32 0, ptr %7, align 4
  store i32 1, ptr %17, align 4
  br label %60

60:                                               ; preds = %50, %37
  call void @llvm.lifetime.end.p0(i64 8, ptr %16) #10
  call void @llvm.lifetime.end.p0(i64 8, ptr %15) #10
  call void @llvm.lifetime.end.p0(i64 8, ptr %14) #10
  %61 = load i32, ptr %7, align 4
  ret i32 %61
}