; Function Attrs: nounwind uwtable
define internal range(i32 0, 4) i32 @cb_server_alpn(ptr readnone captures(none) %0, ptr noundef %1, ptr noundef %2, ptr noundef %3, i32 noundef %4, ptr noundef %5) #7 {
  %7 = tail call i64 @strlen(ptr noundef nonnull readonly dereferenceable(1) %5) #25
  %8 = icmp ugt i64 %7, 65534
  br i1 %8, label %28, label %9

9:                                                ; preds = %6
  %10 = add nuw nsw i64 %7, 1
  %11 = tail call noalias ptr @CRYPTO_malloc(i64 noundef %10, ptr noundef nonnull @.str.104, i32 noundef 267) #23
  %.not.i = icmp eq ptr %11, null
  br i1 %.not.i, label %28, label %.preheader.i

.preheader.i:                                     ; preds = %9
  %invariant.gep.i = getelementptr inbounds nuw i8, ptr %11, i64 1
  br label %12

12:                                               ; preds = %27, %.preheader.i
  %.033.i = phi i64 [ 0, %.preheader.i ], [ %.1.i, %27 ]
  %.02632.i = phi i64 [ 0, %.preheader.i ], [ %.pre-phi.i, %27 ]
  %13 = icmp eq i64 %.02632.i, %7
  br i1 %13, label %18, label %14

14:                                               ; preds = %12
  %15 = getelementptr inbounds nuw i8, ptr %5, i64 %.02632.i
  %16 = load i8, ptr %15, align 1, !tbaa !23
  %17 = icmp eq i8 %16, 44
  br i1 %17, label %18, label %26

18:                                               ; preds = %14, %12
  %19 = sub i64 %.02632.i, %.033.i
  %20 = icmp ugt i64 %19, 255
  br i1 %20, label %21, label %22

21:                                               ; preds = %18
  tail call void @CRYPTO_free(ptr noundef nonnull %11, ptr noundef nonnull @.str.104, i32 noundef 274) #23
  br label %28

22:                                               ; preds = %18
  %23 = trunc nuw i64 %19 to i8
  %24 = getelementptr inbounds nuw i8, ptr %11, i64 %.033.i
  store i8 %23, ptr %24, align 1, !tbaa !23
  %25 = add nuw nsw i64 %.02632.i, 1
  br label %27

26:                                               ; preds = %14
  %gep.i = getelementptr inbounds nuw i8, ptr %invariant.gep.i, i64 %.02632.i
  store i8 %16, ptr %gep.i, align 1, !tbaa !23
  %.pre.i = add nuw nsw i64 %.02632.i, 1
  br label %27

27:                                               ; preds = %26, %22
  %.pre-phi.i = phi i64 [ %25, %22 ], [ %.pre.i, %26 ]
  %.1.i = phi i64 [ %25, %22 ], [ %.033.i, %26 ]
  %exitcond.not.i = icmp eq i64 %.pre-phi.i, %10
  br i1 %exitcond.not.i, label %next_protos_parse.exit, label %12, !llvm.loop !36

28:                                               ; preds = %21, %6, %9
  %29 = load ptr, ptr @stderr, align 8, !tbaa !17
  %30 = tail call i32 (ptr, ptr, ...) @fprintf(ptr noundef %29, ptr noundef nonnull @.str.217, ptr noundef nonnull %5) #26
  tail call void @abort() #27
  unreachable

next_protos_parse.exit:                           ; preds = %27
  %31 = trunc nuw i64 %10 to i32
  %32 = tail call i32 @SSL_select_next_proto(ptr noundef %1, ptr noundef %2, ptr noundef nonnull %11, i32 noundef %31, ptr noundef %3, i32 noundef %4) #23
  %.not = icmp eq i32 %32, 1
  br i1 %.not, label %33, label %45

33:                                               ; preds = %next_protos_parse.exit
  %34 = load i8, ptr %2, align 1, !tbaa !23
  %35 = zext i8 %34 to i64
  %36 = tail call noalias ptr @CRYPTO_malloc(i64 noundef %35, ptr noundef nonnull @.str.104, i32 noundef 313) #23
  store ptr %36, ptr @alpn_selected, align 8, !tbaa !21
  %37 = icmp eq ptr %36, null
  br i1 %37, label %38, label %41

38:                                               ; preds = %33
  %39 = load ptr, ptr @stderr, align 8, !tbaa !17
  %40 = tail call i64 @fwrite(ptr nonnull @.str.218, i64 26, i64 1, ptr %39) #24
  tail call void @CRYPTO_free(ptr noundef nonnull %11, ptr noundef nonnull @.str.104, i32 noundef 316) #23
  tail call void @abort() #27
  unreachable

41:                                               ; preds = %33
  %42 = load ptr, ptr %1, align 8, !tbaa !21
  %43 = load i8, ptr %2, align 1, !tbaa !23
  %44 = zext i8 %43 to i64
  tail call void @llvm.memcpy.p0.p0.i64(ptr nonnull align 1 %36, ptr align 1 %42, i64 %44, i1 false)
  store ptr %36, ptr %1, align 8, !tbaa !21
  br label %45

45:                                               ; preds = %next_protos_parse.exit, %41
  %.sink = phi i32 [ 322, %41 ], [ 305, %next_protos_parse.exit ]
  %.0 = phi i32 [ 0, %41 ], [ 3, %next_protos_parse.exit ]
  tail call void @CRYPTO_free(ptr noundef nonnull %11, ptr noundef nonnull @.str.104, i32 noundef %.sink) #23
  ret i32 %.0
}